-----BEGIN CERTIFICATE-----
MIIFEzCCAvugAwIBAgIUP9gemFUNnY/zkSNNbhLguh2KKmcwDQYJKoZIhvcNAQEL
BQAwGTEXMBUGA1UEAwwOREVWRUxPUE1FTlQtY2EwHhcNMjExMTAzMTczOTMzWhcN
NDExMDI5MTczOTMzWjAZMRcwFQYDVQQDDA5ERVZFTE9QTUVOVC1jYTCCAiIwDQYJ
KoZIhvcNAQEBBQADggIPADCCAgoCggIBAKDFZJNnfK5ustWYv8oves6nWVblhQms
M2MLRdaeaMXuN9GPiLsmNL7c9HZv6WKp+WePH7ldp8J7tEkLA9eI4i4Klhk2uvV5
plUNd6vbRnOBgbvIW/UcnAaQ43uzpwUTOd6COznaVUlyVyhe9JT0FnhhsYhE99Xq
F3pJHknFiHMBvQFQcZtVlynFp5wkSVCDot92grdQV4x5vKunq4nEseB0dTkop0yY
8B2eHT57cEeUOCDW6DETOfxql10Oqyxxc4b/0PQ/9UELVxPC/z5H/5FqWrWM9RsU
wdBIG8Xpf5+B53WLOwPcF2amdTV1guPuO9Ae1fiH4Fn2j2/y/Tv5tgoWPsv6hdVl
5if3lm05jnCvfQXP08JCw438ZkfY1mZaHD2U3WLNwZBRY7/5EVRoDLNhwWMEZog/
vI5+Ae3MKMimYw4Yp8498GBxDPZemcits3nBlJR6tIwfHz6SsNAwFVBwv8+7d6PJ
n93RD0xrD/5vnsCxMpxE4GyyELfK/agm2G7nuznBlXXYUCDwPSNCXDVQbts5f6So
uOCNBBP8Likd1zJTgi78GJGvZnFIXX5I6X8W3azQeZPyueYlYzLLhxaLGdwJtxSw
DhHWVHLGfr7sI+DFqTUiS+OkM7SyShlyohD59gNY/d9y3f7ddd+fZ31MxWIagm8z
KpxxjVN/SFClAgMBAAGjUzBRMB0GA1UdDgQWBBTxzsZ1ttQkLASN31gR+1ps+k5t
WDAfBgNVHSMEGDAWgBTxzsZ1ttQkLASN31gR+1ps+k5tWDAPBgNVHRMBAf8EBTAD
AQH/MA0GCSqGSIb3DQEBCwUAA4ICAQBN72EHn79y6uPNEeAeDVwyzPSwd6DKlhXK
FWGJihzIU+vjBcOJoqcNaLnLU2vMw2FJu3kX/Ao5x9gdCF+8FYN+3s1X72+abnRr
fQvyiL4TuAqt0iIUOnjW7H22gpExQQqEiRflZ+1P4yAqTiQbzO6Txzsf7es1vbOC
dFZgE41WnP4M0kenAj+9B8ansFssTbnx2mLIrhVbMyqBaJXIhYl1MuaI0ibHwXh1
K81HmVBQE9N5dY9n6V3Lbq+6ZSvsAziOc3UnJTuw+ypnaYq/YxZCw7Nm1Asi3iDH
KyrQD3QrGnrVz6Fq/aOSkTlN/nDdgibUHexHK+c93jDIfXXuNI+h3S3R2uHuVCR8
K9ZxRWFbs7jLbzrAlGip5vh1ABzgXj1KxU2ARFlLpkWxKb2xTGG7MOOyxpluZYN1
BXL4MqWKjCbsvohD2aGFzdWZnCwC5FWlThkmE807RancpkLcNBIu3pO56B0p3ARb
F1apa2O1dhLybAkk7PNRQtyj/NjV2IbtXbc75fj73LZpZ6dHnp4axgy3q/Xh3dS0
ab02z9hS5I4WfSMhGKyKFKQxKGsQvYsw4Dpb+PMSEZwtSxkxeq43RadHE2Y9PTLT
CvqVlKeCgcZB/tYKBu6goIJv1uJsMQbOcCUa6GP1gzvypegqxJZwS59QApWPpDX4
mFtU+feeWw==
-----END CERTIFICATE-----
Certificate:
    Data:
        Version: 3 (0x2)
        Serial Number:
            3f:d8:1e:98:55:0d:9d:8f:f3:91:23:4d:6e:12:e0:ba:1d:8a:2a:67
        Signature Algorithm: sha256WithRSAEncryption
        Issuer: CN = DEVELOPMENT-ca
        Validity
            Not Before: Nov  3 17:39:33 2021 GMT
            Not After : Oct 29 17:39:33 2041 GMT
        Subject: CN = DEVELOPMENT-ca
        Subject Public Key Info:
            Public Key Algorithm: rsaEncryption
                RSA Public-Key: (4096 bit)
                Modulus:
                    00:a0:c5:64:93:67:7c:ae:6e:b2:d5:98:bf:ca:2f:
                    7a:ce:a7:59:56:e5:85:09:ac:33:63:0b:45:d6:9e:
                    68:c5:ee:37:d1:8f:88:bb:26:34:be:dc:f4:76:6f:
                    e9:62:a9:f9:67:8f:1f:b9:5d:a7:c2:7b:b4:49:0b:
                    03:d7:88:e2:2e:0a:96:19:36:ba:f5:79:a6:55:0d:
                    77:ab:db:46:73:81:81:bb:c8:5b:f5:1c:9c:06:90:
                    e3:7b:b3:a7:05:13:39:de:82:3b:39:da:55:49:72:
                    57:28:5e:f4:94:f4:16:78:61:b1:88:44:f7:d5:ea:
                    17:7a:49:1e:49:c5:88:73:01:bd:01:50:71:9b:55:
                    97:29:c5:a7:9c:24:49:50:83:a2:df:76:82:b7:50:
                    57:8c:79:bc:ab:a7:ab:89:c4:b1:e0:74:75:39:28:
                    a7:4c:98:f0:1d:9e:1d:3e:7b:70:47:94:38:20:d6:
                    e8:31:13:39:fc:6a:97:5d:0e:ab:2c:71:73:86:ff:
                    d0:f4:3f:f5:41:0b:57:13:c2:ff:3e:47:ff:91:6a:
                    5a:b5:8c:f5:1b:14:c1:d0:48:1b:c5:e9:7f:9f:81:
                    e7:75:8b:3b:03:dc:17:66:a6:75:35:75:82:e3:ee:
                    3b:d0:1e:d5:f8:87:e0:59:f6:8f:6f:f2:fd:3b:f9:
                    b6:0a:16:3e:cb:fa:85:d5:65:e6:27:f7:96:6d:39:
                    8e:70:af:7d:05:cf:d3:c2:42:c3:8d:fc:66:47:d8:
                    d6:66:5a:1c:3d:94:dd:62:cd:c1:90:51:63:bf:f9:
                    11:54:68:0c:b3:61:c1:63:04:66:88:3f:bc:8e:7e:
                    01:ed:cc:28:c8:a6:63:0e:18:a7:ce:3d:f0:60:71:
                    0c:f6:5e:99:c8:ad:b3:79:c1:94:94:7a:b4:8c:1f:
                    1f:3e:92:b0:d0:30:15:50:70:bf:cf:bb:77:a3:c9:
                    9f:dd:d1:0f:4c:6b:0f:fe:6f:9e:c0:b1:32:9c:44:
                    e0:6c:b2:10:b7:ca:fd:a8:26:d8:6e:e7:bb:39:c1:
                    95:75:d8:50:20:f0:3d:23:42:5c:35:50:6e:db:39:
                    7f:a4:a8:b8:e0:8d:04:13:fc:2e:29:1d:d7:32:53:
                    82:2e:fc:18:91:af:66:71:48:5d:7e:48:e9:7f:16:
                    dd:ac:d0:79:93:f2:b9:e6:25:63:32:cb:87:16:8b:
                    19:dc:09:b7:14:b0:0e:11:d6:54:72:c6:7e:be:ec:
                    23:e0:c5:a9:35:22:4b:e3:a4:33:b4:b2:4a:19:72:
                    a2:10:f9:f6:03:58:fd:df:72:dd:fe:dd:75:df:9f:
                    67:7d:4c:c5:62:1a:82:6f:33:2a:9c:71:8d:53:7f:
                    48:50:a5
                Exponent: 65537 (0x10001)
        X509v3 extensions:
            X509v3 Subject Key Identifier: 
                F1:CE:C6:75:B6:D4:24:2C:04:8D:DF:58:11:FB:5A:6C:FA:4E:6D:58
            X509v3 Authority Key Identifier: 
                keyid:F1:CE:C6:75:B6:D4:24:2C:04:8D:DF:58:11:FB:5A:6C:FA:4E:6D:58

            X509v3 Basic Constraints: critical
                CA:TRUE
    Signature Algorithm: sha256WithRSAEncryption
         4d:ef:61:07:9f:bf:72:ea:e3:cd:11:e0:1e:0d:5c:32:cc:f4:
         b0:77:a0:ca:96:15:ca:15:61:89:8a:1c:c8:53:eb:e3:05:c3:
         89:a2:a7:0d:68:b9:cb:53:6b:cc:c3:61:49:bb:79:17:fc:0a:
         39:c7:d8:1d:08:5f:bc:15:83:7e:de:cd:57:ef:6f:9a:6e:74:
         6b:7d:0b:f2:88:be:13:b8:0a:ad:d2:22:14:3a:78:d6:ec:7d:
         b6:82:91:31:41:0a:84:89:17:e5:67:ed:4f:e3:20:2a:4e:24:
         1b:cc:ee:93:c7:3b:1f:ed:eb:35:bd:b3:82:74:56:60:13:8d:
         56:9c:fe:0c:d2:47:a7:02:3f:bd:07:c6:a7:b0:5b:2c:4d:b9:
         f1:da:62:c8:ae:15:5b:33:2a:81:68:95:c8:85:89:75:32:e6:
         88:d2:26:c7:c1:78:75:2b:cd:47:99:50:50:13:d3:79:75:8f:
         67:e9:5d:cb:6e:af:ba:65:2b:ec:03:38:8e:73:75:27:25:3b:
         b0:fb:2a:67:69:8a:bf:63:16:42:c3:b3:66:d4:0b:22:de:20:
         c7:2b:2a:d0:0f:74:2b:1a:7a:d5:cf:a1:6a:fd:a3:92:91:39:
         4d:fe:70:dd:82:26:d4:1d:ec:47:2b:e7:3d:de:30:c8:7d:75:
         ee:34:8f:a1:dd:2d:d1:da:e1:ee:54:24:7c:2b:d6:71:45:61:
         5b:b3:b8:cb:6f:3a:c0:94:68:a9:e6:f8:75:00:1c:e0:5e:3d:
         4a:c5:4d:80:44:59:4b:a6:45:b1:29:bd:b1:4c:61:bb:30:e3:
         b2:c6:99:6e:65:83:75:05:72:f8:32:a5:8a:8c:26:ec:be:88:
         43:d9:a1:85:cd:d5:99:9c:2c:02:e4:55:a5:4e:19:26:13:cd:
         3b:45:a9:dc:a6:42:dc:34:12:2e:de:93:b9:e8:1d:29:dc:04:
         5b:17:56:a9:6b:63:b5:76:12:f2:6c:09:24:ec:f3:51:42:dc:
         a3:fc:d8:d5:d8:86:ed:5d:b7:3b:e5:f8:fb:dc:b6:69:67:a7:
         47:9e:9e:1a:c6:0c:b7:ab:f5:e1:dd:d4:b4:69:bd:36:cf:d8:
         52:e4:8e:16:7d:23:21:18:ac:8a:14:a4:31:28:6b:10:bd:8b:
         30:e0:3a:5b:f8:f3:12:11:9c:2d:4b:19:31:7a:ae:37:45:a7:
         47:13:66:3d:3d:32:d3:0a:fa:95:94:a7:82:81:c6:41:fe:d6:
         0a:06:ee:a0:a0:82:6f:d6:e2:6c:31:06:ce:70:25:1a:e8:63:
         f5:83:3b:f2:a5:e8:2a:c4:96:70:4b:9f:50:02:95:8f:a4:35:
         f8:98:5b:54:f9:f7:9e:5b
